target datalayout = "e-m:e-p270:32:32-p271:32:32-p272:64:64-i64:64-i128:128-f80:128-n8:16:32:64-S128"
target triple = "x86_64-pc-linux-gnu"

%struct.GMatchState = type { ptr, ptr, ptr, %struct.MatchState }
%struct.MatchState = type { ptr, ptr, ptr, ptr, i32, i32, [32 x %struct.anon] }
%struct.anon = type { ptr, i64 }

; Function Attrs: nounwind uwtable
define internal void @prepstate(ptr noundef %0, ptr noundef %1, ptr noundef %2, i64 noundef %3, ptr noundef %4, i64 noundef %5) #0 {
  %7 = alloca ptr, align 8
  %8 = alloca ptr, align 8
  %9 = alloca ptr, align 8
  %10 = alloca i64, align 8
  %11 = alloca ptr, align 8
  %12 = alloca i64, align 8
  store ptr %0, ptr %7, align 8, !tbaa !43
  store ptr %1, ptr %8, align 8, !tbaa !4
  store ptr %2, ptr %9, align 8, !tbaa !9
  store i64 %3, ptr %10, align 8, !tbaa !13
  store ptr %4, ptr %11, align 8, !tbaa !9
  store i64 %5, ptr %12, align 8, !tbaa !13
  %13 = load ptr, ptr %8, align 8, !tbaa !4
  %14 = load ptr, ptr %7, align 8, !tbaa !43
  %15 = getelementptr inbounds nuw %struct.MatchState, ptr %14, i32 0, i32 3
  store ptr %13, ptr %15, align 8, !tbaa !45
  %16 = load ptr, ptr %7, align 8, !tbaa !43
  %17 = getelementptr inbounds nuw %struct.MatchState, ptr %16, i32 0, i32 4
  store i32 200, ptr %17, align 8, !tbaa !46
  %18 = load ptr, ptr %9, align 8, !tbaa !9
  %19 = load ptr, ptr %7, align 8, !tbaa !43
  %20 = getelementptr inbounds nuw %struct.MatchState, ptr %19, i32 0, i32 0
  store ptr %18, ptr %20, align 8, !tbaa !47
  %21 = load ptr, ptr %9, align 8, !tbaa !9
  %22 = load i64, ptr %10, align 8, !tbaa !13
  %23 = getelementptr inbounds nuw i8, ptr %21, i64 %22
  %24 = load ptr, ptr %7, align 8, !tbaa !43
  %25 = getelementptr inbounds nuw %struct.MatchState, ptr %24, i32 0, i32 1
  store ptr %23, ptr %25, align 8, !tbaa !34
  %26 = load ptr, ptr %11, align 8, !tbaa !9
  %27 = load i64, ptr %12, align 8, !tbaa !13
  %28 = getelementptr inbounds nuw i8, ptr %26, i64 %27
  %29 = load ptr, ptr %7, align 8, !tbaa !43
  %30 = getelementptr inbounds nuw %struct.MatchState, ptr %29, i32 0, i32 2
  store ptr %28, ptr %30, align 8, !tbaa !48
  ret void
}

; Function Attrs: nounwind uwtable
define internal i64 @posrelatI(i64 noundef %0, i64 noundef %1) #0 {
  %3 = alloca i64, align 8
  %4 = alloca i64, align 8
  %5 = alloca i64, align 8
  store i64 %0, ptr %4, align 8, !tbaa !11
  store i64 %1, ptr %5, align 8, !tbaa !13
  %6 = load i64, ptr %4, align 8, !tbaa !11
  %7 = icmp sgt i64 %6, 0
  br i1 %7, label %8, label %10

8:                                                ; preds = %2
  %9 = load i64, ptr %4, align 8, !tbaa !11
  store i64 %9, ptr %3, align 8
  br label %25

10:                                               ; preds = %2
  %11 = load i64, ptr %4, align 8, !tbaa !11
  %12 = icmp eq i64 %11, 0
  br i1 %12, label %13, label %14

13:                                               ; preds = %10
  store i64 1, ptr %3, align 8
  br label %25

14:                                               ; preds = %10
  %15 = load i64, ptr %4, align 8, !tbaa !11
  %16 = load i64, ptr %5, align 8, !tbaa !13
  %17 = sub nsw i64 0, %16
  %18 = icmp slt i64 %15, %17
  br i1 %18, label %19, label %20

19:                                               ; preds = %14
  store i64 1, ptr %3, align 8
  br label %25

20:                                               ; preds = %14
  %21 = load i64, ptr %5, align 8, !tbaa !13
  %22 = load i64, ptr %4, align 8, !tbaa !11
  %23 = add i64 %21, %22
  %24 = add i64 %23, 1
  store i64 %24, ptr %3, align 8
  br label %25

25:                                               ; preds = %20, %19, %13, %8
  %26 = load i64, ptr %3, align 8
  ret i64 %26
}

; Function Attrs: nounwind uwtable
define internal i32 @gmatch(ptr noundef %0) #0 {
  %2 = alloca ptr, align 8
  %3 = alloca i64, align 8
  %4 = alloca i64, align 8
  %5 = alloca ptr, align 8
  %6 = alloca ptr, align 8
  %7 = alloca i64, align 8
  %8 = alloca ptr, align 8
  store ptr %0, ptr %2, align 8, !tbaa !4
  call void @llvm.lifetime.start.p0(i64 8, ptr %3) #11
  call void @llvm.lifetime.start.p0(i64 8, ptr %4) #11
  call void @llvm.lifetime.start.p0(i64 8, ptr %5) #11
  %9 = load ptr, ptr %2, align 8, !tbaa !4
  %10 = call ptr @luaL_checklstring(ptr noundef %9, i32 noundef 1, ptr noundef %3)
  store ptr %10, ptr %5, align 8, !tbaa !9
  call void @llvm.lifetime.start.p0(i64 8, ptr %6) #11
  %11 = load ptr, ptr %2, align 8, !tbaa !4
  %12 = call ptr @luaL_checklstring(ptr noundef %11, i32 noundef 2, ptr noundef %4)
  store ptr %12, ptr %6, align 8, !tbaa !9
  call void @llvm.lifetime.start.p0(i64 8, ptr %7) #11
  %13 = load ptr, ptr %2, align 8, !tbaa !4
  %14 = call i64 @luaL_optinteger(ptr noundef %13, i32 noundef 3, i64 noundef 1)
  %15 = load i64, ptr %3, align 8, !tbaa !13
  %16 = call i64 @posrelatI(i64 noundef %14, i64 noundef %15)
  %17 = sub i64 %16, 1
  store i64 %17, ptr %7, align 8, !tbaa !13
  call void @llvm.lifetime.start.p0(i64 8, ptr %8) #11
  %18 = load ptr, ptr %2, align 8, !tbaa !4
  call void @lua_settop(ptr noundef %18, i32 noundef 2)
  %19 = load ptr, ptr %2, align 8, !tbaa !4
  %20 = call ptr @lua_newuserdatauv(ptr noundef %19, i64 noundef 576, i32 noundef 0)
  store ptr %20, ptr %8, align 8, !tbaa !27
  %21 = load i64, ptr %7, align 8, !tbaa !13
  %22 = load i64, ptr %3, align 8, !tbaa !13
  %23 = icmp ugt i64 %21, %22
  br i1 %23, label %24, label %27

24:                                               ; preds = %1
  %25 = load i64, ptr %3, align 8, !tbaa !13
  %26 = add i64 %25, 1
  store i64 %26, ptr %7, align 8, !tbaa !13
  br label %27

27:                                               ; preds = %24, %1
  %28 = load ptr, ptr %8, align 8, !tbaa !27
  %29 = getelementptr inbounds nuw %struct.GMatchState, ptr %28, i32 0, i32 3
  %30 = load ptr, ptr %2, align 8, !tbaa !4
  %31 = load ptr, ptr %5, align 8, !tbaa !9
  %32 = load i64, ptr %3, align 8, !tbaa !13
  %33 = load ptr, ptr %6, align 8, !tbaa !9
  %34 = load i64, ptr %4, align 8, !tbaa !13
  call void @prepstate(ptr noundef %29, ptr noundef %30, ptr noundef %31, i64 noundef %32, ptr noundef %33, i64 noundef %34)
  %35 = load ptr, ptr %5, align 8, !tbaa !9
  %36 = load i64, ptr %7, align 8, !tbaa !13
  %37 = getelementptr inbounds nuw i8, ptr %35, i64 %36
  %38 = load ptr, ptr %8, align 8, !tbaa !27
  %39 = getelementptr inbounds nuw %struct.GMatchState, ptr %38, i32 0, i32 0
  store ptr %37, ptr %39, align 8, !tbaa !29
  %40 = load ptr, ptr %6, align 8, !tbaa !9
  %41 = load ptr, ptr %8, align 8, !tbaa !27
  %42 = getelementptr inbounds nuw %struct.GMatchState, ptr %41, i32 0, i32 1
  store ptr %40, ptr %42, align 8, !tbaa !32
  %43 = load ptr, ptr %8, align 8, !tbaa !27
  %44 = getelementptr inbounds nuw %struct.GMatchState, ptr %43, i32 0, i32 2
  store ptr null, ptr %44, align 8, !tbaa !33
  %45 = load ptr, ptr %2, align 8, !tbaa !4
  call void @lua_pushcclosure(ptr noundef %45, ptr noundef @gmatch_aux, i32 noundef 3)
  call void @llvm.lifetime.end.p0(i64 8, ptr %8) #11
  call void @llvm.lifetime.end.p0(i64 8, ptr %7) #11
  call void @llvm.lifetime.end.p0(i64 8, ptr %6) #11
  call void @llvm.lifetime.end.p0(i64 8, ptr %5) #11
  call void @llvm.lifetime.end.p0(i64 8, ptr %4) #11
  call void @llvm.lifetime.end.p0(i64 8, ptr %3) #11
  ret i32 1
}