; Function Attrs: nounwind uwtable
define internal noundef i32 @gmatch(ptr noundef %0) #0 {
  %2 = alloca i64, align 8
  %3 = alloca i64, align 8
  call void @llvm.lifetime.start.p0(i64 8, ptr nonnull %2) #12
  call void @llvm.lifetime.start.p0(i64 8, ptr nonnull %3) #12
  %4 = call ptr @luaL_checklstring(ptr noundef %0, i32 noundef 1, ptr noundef nonnull %2) #12
  %5 = call ptr @luaL_checklstring(ptr noundef %0, i32 noundef 2, ptr noundef nonnull %3) #12
  %6 = call i64 @luaL_optinteger(ptr noundef %0, i32 noundef 3, i64 noundef 1) #12
  %7 = load i64, ptr %2, align 8, !tbaa !4
  %8 = icmp sgt i64 %6, 0
  br i1 %8, label %posrelatI.exit, label %9

9:                                                ; preds = %1
  %10 = icmp eq i64 %6, 0
  %11 = sub nsw i64 0, %7
  %12 = icmp slt i64 %6, %11
  %or.cond.i = select i1 %10, i1 true, i1 %12
  br i1 %or.cond.i, label %posrelatI.exit, label %13

13:                                               ; preds = %9
  %14 = add nsw i64 %6, 1
  %15 = add i64 %14, %7
  br label %posrelatI.exit

posrelatI.exit:                                   ; preds = %1, %9, %13
  %.0.i = phi i64 [ %15, %13 ], [ %6, %1 ], [ 1, %9 ]
  %16 = add i64 %.0.i, -1
  call void @lua_settop(ptr noundef %0, i32 noundef 2) #12
  %17 = call ptr @lua_newuserdatauv(ptr noundef %0, i64 noundef 576, i32 noundef 0) #12
  %18 = load i64, ptr %2, align 8, !tbaa !4
  %19 = icmp ugt i64 %16, %18
  %20 = add i64 %18, 1
  %spec.select = select i1 %19, i64 %20, i64 %16
  %21 = getelementptr inbounds nuw i8, ptr %17, i64 24
  %22 = load i64, ptr %3, align 8, !tbaa !4
  %23 = getelementptr inbounds nuw i8, ptr %17, i64 48
  store ptr %0, ptr %23, align 8, !tbaa !27
  %24 = getelementptr inbounds nuw i8, ptr %17, i64 56
  store i32 200, ptr %24, align 8, !tbaa !29
  store ptr %4, ptr %21, align 8, !tbaa !30
  %25 = getelementptr inbounds nuw i8, ptr %4, i64 %18
  %26 = getelementptr inbounds nuw i8, ptr %17, i64 32
  store ptr %25, ptr %26, align 8, !tbaa !31
  %27 = getelementptr inbounds nuw i8, ptr %5, i64 %22
  %28 = getelementptr inbounds nuw i8, ptr %17, i64 40
  store ptr %27, ptr %28, align 8, !tbaa !32
  %29 = getelementptr inbounds nuw i8, ptr %4, i64 %spec.select
  store ptr %29, ptr %17, align 8, !tbaa !33
  %30 = getelementptr inbounds nuw i8, ptr %17, i64 8
  store ptr %5, ptr %30, align 8, !tbaa !35
  %31 = getelementptr inbounds nuw i8, ptr %17, i64 16
  store ptr null, ptr %31, align 8, !tbaa !36
  call void @lua_pushcclosure(ptr noundef %0, ptr noundef nonnull @gmatch_aux, i32 noundef 3) #12
  call void @llvm.lifetime.end.p0(i64 8, ptr nonnull %3) #12
  call void @llvm.lifetime.end.p0(i64 8, ptr nonnull %2) #12
  ret i32 1
}